Certificate:
    Data:
        Version: 4 (0x3)
        Serial Number: 1 (0x1)
    Signature Algorithm: sha1WithRSAEncryption
        Issuer: CN=www.example.com, C=BE, O=Gremwell bvba
        Validity
            Not Before: Jan  1 00:00:00 1970 GMT
            Not After : Jan 19 03:14:07 2038 GMT
        Subject: CN=www.example.com, C=BE, O=Gremwell bvba
        Subject Public Key Info:
            Public Key Algorithm: rsaEncryption
                Public-Key: (1024 bit)
                Modulus:
                    00:de:b9:0e:76:88:ff:e6:c4:85:91:51:97:e3:f7:
                    55:15:cf:80:7a:c0:f1:b8:70:58:ca:aa:8d:ac:3c:
                    f1:28:56:3e:34:30:14:2c:20:9c:cb:ce:72:2d:66:
                    d7:97:fc:64:97:89:4d:3c:ec:2c:f2:b2:fa:b0:d5:
                    88:42:54:37:e0:29:4f:8b:b6:eb:c0:93:ab:94:48:
                    40:c5:07:5a:f7:ae:e2:78:bd:d9:bd:64:41:3a:65:
                    ad:e2:82:6c:23:6e:aa:6a:18:84:f0:1c:cb:5a:7c:
                    04:42:97:22:cb:21:80:45:95:5e:52:54:67:71:d5:
                    6f:b3:0f:c9:fc:c9:4c:b1:b7
                Exponent: 65537 (0x10001)
    Signature Algorithm: sha1WithRSAEncryption
         1f:0b:a1:76:1a:c0:ed:e4:7c:77:b0:4e:e0:7e:17:7c:da:69:
         8d:14:15:63:bd:a6:76:cc:e9:de:d8:29:8e:2e:0b:8e:8a:ec:
         ce:6e:4c:c9:5a:b5:57:54:11:53:7b:81:cd:b6:56:cb:d3:91:
         9e:b7:e5:a7:d8:e6:46:11:84:d9:06:d2:b4:6a:fb:6f:6d:3e:
         98:15:5f:c9:f4:1c:9c:f1:6f:13:ce:fd:51:94:d2:57:24:48:
         25:a4:d3:f9:1c:78:c2:61:fc:12:a9:2a:95:dd:59:8c:58:69:
         ae:39:76:34:ac:ce:63:18:70:2c:73:a5:74:da:00:48:2d:93:
         0e:3d
-----BEGIN CERTIFICATE-----
MIIB8jCCAVugAwIBAwIBATANBgkqhkiG9w0BAQUFADA/MRgwFgYDVQQDDA93d3cu
ZXhhbXBsZS5jb20xCzAJBgNVBAYTAkJFMRYwFAYDVQQKDA1HcmVtd2VsbCBidmJh
MB4XDTcwMDEwMTAwMDAwMFoXDTM4MDExOTAzMTQwN1owPzEYMBYGA1UEAwwPd3d3
LmV4YW1wbGUuY29tMQswCQYDVQQGEwJCRTEWMBQGA1UECgwNR3JlbXdlbGwgYnZi
YTCBnzANBgkqhkiG9w0BAQEFAAOBjQAwgYkCgYEA3rkOdoj/5sSFkVGX4/dVFc+A
esDxuHBYyqqNrDzxKFY+NDAULCCcy85yLWbXl/xkl4lNPOws8rL6sNWIQlQ34ClP
i7brwJOrlEhAxQda967ieL3ZvWRBOmWt4oJsI26qahiE8BzLWnwEQpciyyGARZVe
UlRncdVvsw/J/MlMsbcCAwEAATANBgkqhkiG9w0BAQUFAAOBgQAfC6F2GsDt5Hx3
sE7gfhd82mmNFBVjvaZ2zOne2CmOLguOiuzObkzJWrVXVBFTe4HNtlbL05Get+Wn
2OZGEYTZBtK0avtvbT6YFV/J9Byc8W8Tzv1RlNJXJEglpNP5HHjCYfwSqSqV3VmM
WGmuOXY0rM5jGHAsc6V02gBILZMOPQ==
-----END CERTIFICATE-----
